target datalayout = "e-m:e-p270:32:32-p271:32:32-p272:64:64-i64:64-i128:128-f80:128-n8:16:32:64-S128"
target triple = "x86_64-pc-linux-gnu"

%struct.pkcs7_signer_info_st = type { ptr, ptr, ptr, ptr, ptr, ptr, ptr, ptr, ptr }

; Function Attrs: nounwind uwtable
define internal i32 @si_cb(i32 noundef %0, ptr noundef %1, ptr noundef %2, ptr noundef %3) #0 {
  %5 = alloca i32, align 4
  %6 = alloca ptr, align 8
  %7 = alloca ptr, align 8
  %8 = alloca ptr, align 8
  %9 = alloca ptr, align 8
  store i32 %0, ptr %5, align 4, !tbaa !62
  store ptr %1, ptr %6, align 8, !tbaa !65
  store ptr %2, ptr %7, align 8, !tbaa !67
  store ptr %3, ptr %8, align 8, !tbaa !69
  %10 = load i32, ptr %5, align 4, !tbaa !62
  %11 = icmp eq i32 %10, 3
  br i1 %11, label %12, label %18

12:                                               ; preds = %4
  call void @llvm.lifetime.start.p0(i64 8, ptr %9) #3
  %13 = load ptr, ptr %6, align 8, !tbaa !65
  %14 = load ptr, ptr %13, align 8, !tbaa !75
  store ptr %14, ptr %9, align 8, !tbaa !30
  %15 = load ptr, ptr %9, align 8, !tbaa !30
  %16 = getelementptr inbounds nuw %struct.pkcs7_signer_info_st, ptr %15, i32 0, i32 7
  %17 = load ptr, ptr %16, align 8, !tbaa !77
  call void @EVP_PKEY_free(ptr noundef %17)
  call void @llvm.lifetime.end.p0(i64 8, ptr %9) #3
  br label %18

18:                                               ; preds = %12, %4
  ret i32 1
}