; Function Attrs: nounwind uwtable
define internal noundef i32 @si_cb(i32 noundef %0, ptr noundef readonly captures(none) %1, ptr readnone captures(none) %2, ptr readnone captures(none) %3) #1 {
  %5 = icmp eq i32 %0, 3
  br i1 %5, label %6, label %10

6:                                                ; preds = %4
  %7 = load ptr, ptr %1, align 8, !tbaa !22
  %8 = getelementptr inbounds nuw i8, ptr %7, i64 56
  %9 = load ptr, ptr %8, align 8, !tbaa !24
  tail call void @EVP_PKEY_free(ptr noundef %9) #3
  br label %10

10:                                               ; preds = %6, %4
  ret i32 1
}